target datalayout = "e-m:e-p270:32:32-p271:32:32-p272:64:64-i64:64-i128:128-f80:128-n8:16:32:64-S128"
target triple = "x86_64-pc-linux-gnu"

%struct.wtap = type { ptr, ptr, i8, i32, i32, ptr, ptr, ptr, i32, ptr, ptr, ptr, ptr, ptr, ptr, ptr, ptr, ptr, ptr, i32, i32, ptr, ptr, ptr, ptr }
%struct.netxray_t = type { i64, double, double, i8, i32, i64, i64, i32, i8, i32 }
%struct.wtap_rec = type { i32, i32, i32, %struct.nstime_t, i32, %struct.nstime_t, i8, %union.anon, ptr, i8, %struct.Buffer, %struct.Buffer }
%struct.nstime_t = type { i64, i32 }
%union.anon = type { %struct.wtap_packet_header }
%struct.wtap_packet_header = type { i32, i32, i32, i32, %union.wtap_pseudo_header }
%union.wtap_pseudo_header = type { %struct.erf_mc_phdr }
%struct.erf_mc_phdr = type { %struct.erf_phdr, [16 x %struct.erf_ehdr], %union.anon.1 }
%struct.erf_phdr = type { i64, i8, i8, i16, i16, i16 }
%struct.erf_ehdr = type { i64 }
%union.anon.1 = type { i32 }
%struct.Buffer = type { ptr, i64, i64, i64 }
%struct.atm_phdr = type { i32, i8, i8, i8, i16, i16, i8, i16, i16, i16, i16, i32 }

; Function Attrs: null_pointer_is_valid sspstrong uwtable
define internal void @netxray_guess_atm_type(ptr noundef %0, ptr noundef %1) #0 {
  %3 = alloca ptr, align 8
  %4 = alloca ptr, align 8
  store ptr %0, ptr %3, align 8
  store ptr %1, ptr %4, align 8
  %5 = load ptr, ptr %3, align 8
  %6 = getelementptr inbounds nuw %struct.wtap, ptr %5, i32 0, i32 19
  %7 = load i32, ptr %6, align 8
  %8 = icmp eq i32 %7, 14
  br i1 %8, label %9, label %47

9:                                                ; preds = %2
  %10 = load ptr, ptr %4, align 8
  %11 = getelementptr inbounds nuw %struct.wtap_rec, ptr %10, i32 0, i32 7
  %12 = getelementptr inbounds nuw %struct.wtap_packet_header, ptr %11, i32 0, i32 4
  %13 = getelementptr inbounds nuw %struct.atm_phdr, ptr %12, i32 0, i32 0
  %14 = load i32, ptr %13, align 8
  %15 = and i32 %14, 8
  %16 = icmp ne i32 %15, 0
  br i1 %16, label %47, label %17

17:                                               ; preds = %9
  %18 = load ptr, ptr %4, align 8
  %19 = getelementptr inbounds nuw %struct.wtap_rec, ptr %18, i32 0, i32 7
  %20 = getelementptr inbounds nuw %struct.wtap_packet_header, ptr %19, i32 0, i32 4
  %21 = getelementptr inbounds nuw %struct.atm_phdr, ptr %20, i32 0, i32 1
  %22 = load i8, ptr %21, align 4
  %23 = zext i8 %22 to i32
  %24 = icmp eq i32 %23, 0
  br i1 %24, label %25, label %27

25:                                               ; preds = %17
  %26 = load ptr, ptr %4, align 8
  call void @atm_guess_traffic_type(ptr noundef %26)
  br label %46

27:                                               ; preds = %17
  %28 = load ptr, ptr %4, align 8
  %29 = getelementptr inbounds nuw %struct.wtap_rec, ptr %28, i32 0, i32 7
  %30 = getelementptr inbounds nuw %struct.wtap_packet_header, ptr %29, i32 0, i32 4
  %31 = getelementptr inbounds nuw %struct.atm_phdr, ptr %30, i32 0, i32 1
  %32 = load i8, ptr %31, align 4
  %33 = zext i8 %32 to i32
  %34 = icmp eq i32 %33, 4
  br i1 %34, label %35, label %45

35:                                               ; preds = %27
  %36 = load ptr, ptr %4, align 8
  %37 = getelementptr inbounds nuw %struct.wtap_rec, ptr %36, i32 0, i32 7
  %38 = getelementptr inbounds nuw %struct.wtap_packet_header, ptr %37, i32 0, i32 4
  %39 = getelementptr inbounds nuw %struct.atm_phdr, ptr %38, i32 0, i32 2
  %40 = load i8, ptr %39, align 1
  %41 = zext i8 %40 to i32
  %42 = icmp eq i32 %41, 3
  br i1 %42, label %43, label %45

43:                                               ; preds = %35
  %44 = load ptr, ptr %4, align 8
  call void @atm_guess_lane_type(ptr noundef %44)
  br label %45

45:                                               ; preds = %43, %35, %27
  br label %46

46:                                               ; preds = %45, %25
  br label %47

47:                                               ; preds = %46, %9, %2
  ret void
}

; Function Attrs: null_pointer_is_valid sspstrong uwtable
define internal zeroext i1 @netxray_read(ptr noundef %0, ptr noundef %1, ptr noundef %2, ptr noundef %3, ptr noundef %4) #0 {
  %6 = alloca i1, align 1
  %7 = alloca ptr, align 8
  %8 = alloca ptr, align 8
  %9 = alloca ptr, align 8
  %10 = alloca ptr, align 8
  %11 = alloca ptr, align 8
  %12 = alloca ptr, align 8
  %13 = alloca i32, align 4
  %14 = alloca i32, align 4
  store ptr %0, ptr %7, align 8
  store ptr %1, ptr %8, align 8
  store ptr %2, ptr %9, align 8
  store ptr %3, ptr %10, align 8
  store ptr %4, ptr %11, align 8
  call void @llvm.lifetime.start.p0(i64 8, ptr %12) #12
  %15 = load ptr, ptr %7, align 8
  %16 = getelementptr inbounds nuw %struct.wtap, ptr %15, i32 0, i32 13
  %17 = load ptr, ptr %16, align 8
  store ptr %17, ptr %12, align 8
  call void @llvm.lifetime.start.p0(i64 4, ptr %13) #12
  br label %18

18:                                               ; preds = %73, %5
  %19 = load ptr, ptr %7, align 8
  %20 = getelementptr inbounds nuw %struct.wtap, ptr %19, i32 0, i32 0
  %21 = load ptr, ptr %20, align 8
  %22 = call i64 @file_tell(ptr noundef %21)
  %23 = load ptr, ptr %11, align 8
  store i64 %22, ptr %23, align 8
  %24 = load ptr, ptr %11, align 8
  %25 = load i64, ptr %24, align 8
  %26 = load ptr, ptr %12, align 8
  %27 = getelementptr inbounds nuw %struct.netxray_t, ptr %26, i32 0, i32 6
  %28 = load i64, ptr %27, align 8
  %29 = icmp eq i64 %25, %28
  br i1 %29, label %30, label %32

30:                                               ; preds = %18
  %31 = load ptr, ptr %9, align 8
  store i32 0, ptr %31, align 4
  store i1 false, ptr %6, align 1
  store i32 1, ptr %14, align 4
  br label %101

32:                                               ; preds = %18
  %33 = load ptr, ptr %7, align 8
  %34 = load ptr, ptr %7, align 8
  %35 = getelementptr inbounds nuw %struct.wtap, ptr %34, i32 0, i32 0
  %36 = load ptr, ptr %35, align 8
  %37 = load ptr, ptr %8, align 8
  %38 = load ptr, ptr %9, align 8
  %39 = load ptr, ptr %10, align 8
  %40 = call i32 @netxray_process_rec_header(ptr noundef %33, ptr noundef %36, ptr noundef %37, ptr noundef %38, ptr noundef %39)
  store i32 %40, ptr %13, align 4
  %41 = load i32, ptr %13, align 4
  %42 = icmp slt i32 %41, 0
  br i1 %42, label %43, label %75

43:                                               ; preds = %32
  %44 = load ptr, ptr %9, align 8
  %45 = load i32, ptr %44, align 4
  %46 = icmp ne i32 %45, 0
  br i1 %46, label %47, label %48

47:                                               ; preds = %43
  store i1 false, ptr %6, align 1
  store i32 1, ptr %14, align 4
  br label %101

48:                                               ; preds = %43
  %49 = load ptr, ptr %12, align 8
  %50 = getelementptr inbounds nuw %struct.netxray_t, ptr %49, i32 0, i32 5
  %51 = load i64, ptr %50, align 8
  %52 = load ptr, ptr %12, align 8
  %53 = getelementptr inbounds nuw %struct.netxray_t, ptr %52, i32 0, i32 6
  %54 = load i64, ptr %53, align 8
  %55 = icmp slt i64 %51, %54
  br i1 %55, label %56, label %58

56:                                               ; preds = %48
  %57 = load ptr, ptr %9, align 8
  store i32 -12, ptr %57, align 4
  store i1 false, ptr %6, align 1
  store i32 1, ptr %14, align 4
  br label %101

58:                                               ; preds = %48
  %59 = load ptr, ptr %12, align 8
  %60 = getelementptr inbounds nuw %struct.netxray_t, ptr %59, i32 0, i32 3
  %61 = load i8, ptr %60, align 8, !range !6, !noundef !7
  %62 = trunc i8 %61 to i1
  br i1 %62, label %74, label %63

63:                                               ; preds = %58
  %64 = load ptr, ptr %12, align 8
  %65 = getelementptr inbounds nuw %struct.netxray_t, ptr %64, i32 0, i32 3
  store i8 1, ptr %65, align 8
  %66 = load ptr, ptr %7, align 8
  %67 = getelementptr inbounds nuw %struct.wtap, ptr %66, i32 0, i32 0
  %68 = load ptr, ptr %67, align 8
  %69 = load ptr, ptr %9, align 8
  %70 = call i64 @file_seek(ptr noundef %68, i64 noundef 128, i32 noundef 0, ptr noundef %69)
  %71 = icmp eq i64 %70, -1
  br i1 %71, label %72, label %73

72:                                               ; preds = %63
  store i1 false, ptr %6, align 1
  store i32 1, ptr %14, align 4
  br label %101

73:                                               ; preds = %63
  br label %18

74:                                               ; preds = %58
  store i1 false, ptr %6, align 1
  store i32 1, ptr %14, align 4
  br label %101

75:                                               ; preds = %32
  %76 = load ptr, ptr %7, align 8
  %77 = getelementptr inbounds nuw %struct.wtap, ptr %76, i32 0, i32 0
  %78 = load ptr, ptr %77, align 8
  %79 = load ptr, ptr %8, align 8
  %80 = getelementptr inbounds nuw %struct.wtap_rec, ptr %79, i32 0, i32 11
  %81 = load ptr, ptr %8, align 8
  %82 = getelementptr inbounds nuw %struct.wtap_rec, ptr %81, i32 0, i32 7
  %83 = getelementptr inbounds nuw %struct.wtap_packet_header, ptr %82, i32 0, i32 0
  %84 = load i32, ptr %83, align 8
  %85 = load ptr, ptr %9, align 8
  %86 = load ptr, ptr %10, align 8
  %87 = call zeroext i1 @wtap_read_bytes_buffer(ptr noundef %78, ptr noundef %80, i32 noundef %84, ptr noundef %85, ptr noundef %86)
  br i1 %87, label %89, label %88

88:                                               ; preds = %75
  store i1 false, ptr %6, align 1
  store i32 1, ptr %14, align 4
  br label %101

89:                                               ; preds = %75
  %90 = load ptr, ptr %7, align 8
  %91 = getelementptr inbounds nuw %struct.wtap, ptr %90, i32 0, i32 0
  %92 = load ptr, ptr %91, align 8
  %93 = load i32, ptr %13, align 4
  %94 = load ptr, ptr %9, align 8
  %95 = load ptr, ptr %10, align 8
  %96 = call zeroext i1 @wtap_read_bytes(ptr noundef %92, ptr noundef null, i32 noundef %93, ptr noundef %94, ptr noundef %95)
  br i1 %96, label %98, label %97

97:                                               ; preds = %89
  store i1 false, ptr %6, align 1
  store i32 1, ptr %14, align 4
  br label %101

98:                                               ; preds = %89
  %99 = load ptr, ptr %7, align 8
  %100 = load ptr, ptr %8, align 8
  call void @netxray_guess_atm_type(ptr noundef %99, ptr noundef %100)
  store i1 true, ptr %6, align 1
  store i32 1, ptr %14, align 4
  br label %101

101:                                              ; preds = %98, %97, %88, %74, %72, %56, %47, %30
  call void @llvm.lifetime.end.p0(i64 4, ptr %13) #12
  call void @llvm.lifetime.end.p0(i64 8, ptr %12) #12
  %102 = load i1, ptr %6, align 1
  ret i1 %102
}