; Function Attrs: null_pointer_is_valid sspstrong uwtable
define internal noundef zeroext i1 @netxray_read(ptr noundef readonly captures(none) %0, ptr noundef %1, ptr noundef %2, ptr noundef %3, ptr noundef writeonly captures(none) initializes((0, 8)) %4) #0 {
  %6 = getelementptr inbounds nuw i8, ptr %0, i64 96
  %7 = load ptr, ptr %6, align 8
  %8 = getelementptr inbounds nuw i8, ptr %7, i64 40
  %9 = getelementptr inbounds nuw i8, ptr %7, i64 32
  %10 = getelementptr inbounds nuw i8, ptr %7, i64 24
  br label %11

11:                                               ; preds = %31, %5
  %12 = load ptr, ptr %0, align 8
  %13 = tail call i64 @file_tell(ptr noundef %12)
  store i64 %13, ptr %4, align 8
  %14 = load i64, ptr %8, align 8
  %15 = icmp eq i64 %13, %14
  br i1 %15, label %16, label %17

16:                                               ; preds = %11
  store i32 0, ptr %2, align 4
  br label %netxray_guess_atm_type.exit

17:                                               ; preds = %11
  %18 = load ptr, ptr %0, align 8
  %19 = tail call fastcc i32 @netxray_process_rec_header(ptr noundef %0, ptr noundef %18, ptr noundef %1, ptr noundef %2, ptr noundef %3)
  %20 = icmp slt i32 %19, 0
  br i1 %20, label %21, label %35

21:                                               ; preds = %17
  %22 = load i32, ptr %2, align 4
  %.not = icmp eq i32 %22, 0
  br i1 %.not, label %23, label %netxray_guess_atm_type.exit

23:                                               ; preds = %21
  %24 = load i64, ptr %9, align 8
  %25 = load i64, ptr %8, align 8
  %26 = icmp slt i64 %24, %25
  br i1 %26, label %27, label %28

27:                                               ; preds = %23
  store i32 -12, ptr %2, align 4
  br label %netxray_guess_atm_type.exit

28:                                               ; preds = %23
  %29 = load i8, ptr %10, align 8, !range !6, !noundef !7
  %30 = trunc nuw i8 %29 to i1
  br i1 %30, label %netxray_guess_atm_type.exit, label %31

31:                                               ; preds = %28
  store i8 1, ptr %10, align 8
  %32 = load ptr, ptr %0, align 8
  %33 = tail call i64 @file_seek(ptr noundef %32, i64 noundef 128, i32 noundef 0, ptr noundef %2)
  %34 = icmp eq i64 %33, -1
  br i1 %34, label %netxray_guess_atm_type.exit, label %11

35:                                               ; preds = %17
  %36 = load ptr, ptr %0, align 8
  %37 = getelementptr inbounds nuw i8, ptr %1, i64 280
  %38 = getelementptr inbounds nuw i8, ptr %1, i64 64
  %39 = load i32, ptr %38, align 8
  %40 = tail call zeroext i1 @wtap_read_bytes_buffer(ptr noundef %36, ptr noundef nonnull %37, i32 noundef %39, ptr noundef %2, ptr noundef %3)
  br i1 %40, label %41, label %netxray_guess_atm_type.exit

41:                                               ; preds = %35
  %42 = load ptr, ptr %0, align 8
  %43 = tail call zeroext i1 @wtap_read_bytes(ptr noundef %42, ptr noundef null, i32 noundef %19, ptr noundef %2, ptr noundef %3)
  br i1 %43, label %44, label %netxray_guess_atm_type.exit

44:                                               ; preds = %41
  %45 = getelementptr i8, ptr %0, i64 144
  %.val = load i32, ptr %45, align 8
  %46 = icmp eq i32 %.val, 14
  br i1 %46, label %47, label %netxray_guess_atm_type.exit

47:                                               ; preds = %44
  %48 = getelementptr inbounds nuw i8, ptr %1, i64 80
  %49 = load i32, ptr %48, align 8
  %50 = and i32 %49, 8
  %.not.i = icmp eq i32 %50, 0
  br i1 %.not.i, label %51, label %netxray_guess_atm_type.exit

51:                                               ; preds = %47
  %52 = getelementptr inbounds nuw i8, ptr %1, i64 84
  %53 = load i8, ptr %52, align 4
  switch i8 %53, label %netxray_guess_atm_type.exit [
    i8 0, label %54
    i8 4, label %55
  ]

54:                                               ; preds = %51
  tail call void @atm_guess_traffic_type(ptr noundef %1)
  br label %netxray_guess_atm_type.exit

55:                                               ; preds = %51
  %56 = getelementptr inbounds nuw i8, ptr %1, i64 85
  %57 = load i8, ptr %56, align 1
  %58 = icmp eq i8 %57, 3
  br i1 %58, label %59, label %netxray_guess_atm_type.exit

59:                                               ; preds = %55
  tail call void @atm_guess_lane_type(ptr noundef %1)
  br label %netxray_guess_atm_type.exit

netxray_guess_atm_type.exit:                      ; preds = %28, %31, %21, %59, %55, %54, %51, %47, %44, %41, %35, %27, %16
  %.0 = phi i1 [ false, %16 ], [ false, %27 ], [ false, %35 ], [ false, %41 ], [ true, %44 ], [ true, %47 ], [ true, %51 ], [ true, %54 ], [ true, %55 ], [ true, %59 ], [ false, %21 ], [ false, %31 ], [ false, %28 ]
  ret i1 %.0
}